; Function Attrs: mustprogress uwtable
define void @_ZN8QuantLib20RiskyAssetSwapOptionC1EN5boost10shared_ptrINS_14RiskyAssetSwapEEERKNS_4DateEdd(ptr noundef nonnull align 8 dereferenceable(144) %this, ptr nocapture noundef %asw, ptr nocapture noundef nonnull readonly align 8 dereferenceable(8) %expiry, double noundef %marketSpread, double noundef %spreadVolatility) unnamed_addr #8 align 2 personality ptr @__gxx_personality_v0 {
entry:
  %0 = getelementptr inbounds i8, ptr %this, i64 144
  store ptr getelementptr inbounds inrange(-16, 16) (i8, ptr @_ZTVN8QuantLib10ObservableE, i64 16), ptr %0, align 8, !tbaa !33
  %1 = getelementptr inbounds i8, ptr %this, i64 160
  store i32 0, ptr %1, align 8, !tbaa !8
  %_M_parent.i.i.i.i.i.i = getelementptr inbounds i8, ptr %this, i64 168
  store ptr null, ptr %_M_parent.i.i.i.i.i.i, align 8, !tbaa !13
  %_M_left.i.i.i.i.i.i = getelementptr inbounds i8, ptr %this, i64 176
  store ptr %1, ptr %_M_left.i.i.i.i.i.i, align 8, !tbaa !14
  %_M_right.i.i.i.i.i.i = getelementptr inbounds i8, ptr %this, i64 184
  store ptr %1, ptr %_M_right.i.i.i.i.i.i, align 8, !tbaa !15
  %_M_node_count.i.i.i.i.i.i = getelementptr inbounds i8, ptr %this, i64 192
  store i64 0, ptr %_M_node_count.i.i.i.i.i.i, align 8, !tbaa !16
  %2 = getelementptr inbounds i8, ptr %this, i64 200
  store ptr getelementptr inbounds inrange(-16, 32) (i8, ptr @_ZTVN8QuantLib8ObserverE, i64 16), ptr %2, align 8, !tbaa !33
  %3 = getelementptr inbounds i8, ptr %this, i64 216
  store i32 0, ptr %3, align 8, !tbaa !8
  %_M_parent.i.i.i.i.i.i1 = getelementptr inbounds i8, ptr %this, i64 224
  store ptr null, ptr %_M_parent.i.i.i.i.i.i1, align 8, !tbaa !13
  %_M_left.i.i.i.i.i.i2 = getelementptr inbounds i8, ptr %this, i64 232
  store ptr %3, ptr %_M_left.i.i.i.i.i.i2, align 8, !tbaa !14
  %_M_right.i.i.i.i.i.i3 = getelementptr inbounds i8, ptr %this, i64 240
  store ptr %3, ptr %_M_right.i.i.i.i.i.i3, align 8, !tbaa !15
  %_M_node_count.i.i.i.i.i.i4 = getelementptr inbounds i8, ptr %this, i64 248
  store i64 0, ptr %_M_node_count.i.i.i.i.i.i4, align 8, !tbaa !16
  invoke void @_ZN8QuantLib10InstrumentC2Ev(ptr noundef nonnull align 8 dereferenceable(104) %this, ptr noundef nonnull getelementptr inbounds (i8, ptr @_ZTTN8QuantLib20RiskyAssetSwapOptionE, i64 8))
          to label %invoke.cont unwind label %lpad

invoke.cont:                                      ; preds = %entry
  store ptr getelementptr inbounds inrange(-32, 72) (i8, ptr @_ZTVN8QuantLib20RiskyAssetSwapOptionE, i64 32), ptr %this, align 8, !tbaa !33
  store ptr getelementptr inbounds inrange(-24, 16) (i8, ptr @_ZTVN8QuantLib20RiskyAssetSwapOptionE, i64 128), ptr %0, align 8, !tbaa !33
  store ptr getelementptr inbounds inrange(-40, 32) (i8, ptr @_ZTVN8QuantLib20RiskyAssetSwapOptionE, i64 184), ptr %2, align 8, !tbaa !33
  %asw_ = getelementptr inbounds nuw i8, ptr %this, i64 104
  %4 = load ptr, ptr %asw, align 8, !tbaa !44
  store ptr %4, ptr %asw_, align 8, !tbaa !44
  %pn.i = getelementptr inbounds nuw i8, ptr %this, i64 112
  %pn3.i = getelementptr inbounds nuw i8, ptr %asw, i64 8
  %5 = load ptr, ptr %pn3.i, align 8, !tbaa !42
  store ptr %5, ptr %pn.i, align 8, !tbaa !42
  tail call void @llvm.memset.p0.i64(ptr noundef nonnull align 8 dereferenceable(16) %asw, i8 0, i64 16, i1 false)
  %expiry_ = getelementptr inbounds nuw i8, ptr %this, i64 120
  %6 = load i64, ptr %expiry, align 8, !tbaa !37
  store i64 %6, ptr %expiry_, align 8, !tbaa !37
  %marketSpread_ = getelementptr inbounds nuw i8, ptr %this, i64 128
  store double %marketSpread, ptr %marketSpread_, align 8, !tbaa !46
  %spreadVolatility_ = getelementptr inbounds nuw i8, ptr %this, i64 136
  store double %spreadVolatility, ptr %spreadVolatility_, align 8, !tbaa !57
  ret void

lpad:                                             ; preds = %entry
  %7 = landingpad { ptr, i32 }
          cleanup
  tail call void @_ZN8QuantLib8ObserverD2Ev(ptr noundef nonnull align 8 dereferenceable(56) %2) #26
  tail call void @_ZN8QuantLib10ObservableD2Ev(ptr noundef nonnull align 8 dereferenceable(56) %0) #26
  resume { ptr, i32 } %7
}